target datalayout = "e-m:e-p270:32:32-p271:32:32-p272:64:64-i64:64-i128:128-f80:128-n8:16:32:64-S128"
target triple = "x86_64-unknown-linux-gnu"

%"class.Imf_3_2::StdIFStream" = type <{ %"class.Imf_3_2::IStream", ptr, i8, [7 x i8] }>
%"class.Imf_3_2::IStream" = type { ptr, %"class.std::__cxx11::basic_string" }
%"class.std::__cxx11::basic_string" = type { %"struct.std::__cxx11::basic_string<char>::_Alloc_hider", i64, %union.anon }
%"struct.std::__cxx11::basic_string<char>::_Alloc_hider" = type { ptr }
%union.anon = type { i64, [8 x i8] }

@.str = private unnamed_addr constant [24 x i8] c"Unexpected end of file.\00", align 1
@_ZTIN7Iex_3_28InputExcE = external constant ptr

; Function Attrs: mustprogress nounwind uwtable
define internal void @_ZN7Imf_3_212_GLOBAL__N_110clearErrorEv() #5 {
entry:
  %call = call ptr @__errno_location() #13
  store i32 0, ptr %call, align 4
  ret void
}

; Function Attrs: mustprogress uwtable
define noundef zeroext i1 @_ZN7Imf_3_211StdIFStream4readEPci(ptr noundef nonnull align 8 dereferenceable(49) %this, ptr noundef %c, i32 noundef %n) unnamed_addr #4 align 2 personality ptr @__gxx_personality_v0 {
entry:
  %this.addr = alloca ptr, align 8
  %c.addr = alloca ptr, align 8
  %n.addr = alloca i32, align 4
  %exn.slot = alloca ptr, align 8
  %ehselector.slot = alloca i32, align 4
  store ptr %this, ptr %this.addr, align 8
  store ptr %c, ptr %c.addr, align 8
  store i32 %n, ptr %n.addr, align 4
  %this1 = load ptr, ptr %this.addr, align 8
  %_is = getelementptr inbounds %"class.Imf_3_2::StdIFStream", ptr %this1, i32 0, i32 1
  %0 = load ptr, ptr %_is, align 8
  %vtable = load ptr, ptr %0, align 8
  %vbase.offset.ptr = getelementptr i8, ptr %vtable, i64 -24
  %vbase.offset = load i64, ptr %vbase.offset.ptr, align 8
  %add.ptr = getelementptr inbounds i8, ptr %0, i64 %vbase.offset
  %call = call noundef zeroext i1 @_ZNKSt9basic_iosIcSt11char_traitsIcEEntEv(ptr noundef nonnull align 8 dereferenceable(264) %add.ptr)
  br i1 %call, label %if.then, label %if.end

if.then:                                          ; preds = %entry
  %exception = call ptr @__cxa_allocate_exception(i64 72) #3
  invoke void @_ZN7Iex_3_28InputExcC1EPKc(ptr noundef nonnull align 8 dereferenceable(72) %exception, ptr noundef @.str)
          to label %invoke.cont unwind label %lpad

invoke.cont:                                      ; preds = %if.then
  call void @__cxa_throw(ptr %exception, ptr @_ZTIN7Iex_3_28InputExcE, ptr @_ZN7Iex_3_28InputExcD1Ev) #12
  unreachable

lpad:                                             ; preds = %if.then
  %1 = landingpad { ptr, i32 }
          cleanup
  %2 = extractvalue { ptr, i32 } %1, 0
  store ptr %2, ptr %exn.slot, align 8
  %3 = extractvalue { ptr, i32 } %1, 1
  store i32 %3, ptr %ehselector.slot, align 4
  call void @__cxa_free_exception(ptr %exception) #3
  br label %eh.resume

if.end:                                           ; preds = %entry
  call void @_ZN7Imf_3_212_GLOBAL__N_110clearErrorEv()
  %_is2 = getelementptr inbounds %"class.Imf_3_2::StdIFStream", ptr %this1, i32 0, i32 1
  %4 = load ptr, ptr %_is2, align 8
  %5 = load ptr, ptr %c.addr, align 8
  %6 = load i32, ptr %n.addr, align 4
  %conv = sext i32 %6 to i64
  %call3 = call noundef nonnull align 8 dereferenceable(16) ptr @_ZNSi4readEPcl(ptr noundef nonnull align 8 dereferenceable(16) %4, ptr noundef %5, i64 noundef %conv)
  %_is4 = getelementptr inbounds %"class.Imf_3_2::StdIFStream", ptr %this1, i32 0, i32 1
  %7 = load ptr, ptr %_is4, align 8
  %8 = load i32, ptr %n.addr, align 4
  %conv5 = sext i32 %8 to i64
  %call6 = call noundef zeroext i1 @_ZN7Imf_3_212_GLOBAL__N_110checkErrorERSil(ptr noundef nonnull align 8 dereferenceable(16) %7, i64 noundef %conv5)
  ret i1 %call6

eh.resume:                                        ; preds = %lpad
  %exn = load ptr, ptr %exn.slot, align 8
  %sel = load i32, ptr %ehselector.slot, align 4
  %lpad.val = insertvalue { ptr, i32 } poison, ptr %exn, 0
  %lpad.val7 = insertvalue { ptr, i32 } %lpad.val, i32 %sel, 1
  resume { ptr, i32 } %lpad.val7
}