; Function Attrs: mustprogress uwtable
define noundef zeroext i1 @_ZN7Imf_3_211StdIFStream4readEPci(ptr nocapture noundef nonnull readonly align 8 dereferenceable(49) %this, ptr noundef %c, i32 noundef %n) unnamed_addr #3 align 2 personality ptr @__gxx_personality_v0 {
entry:
  %_is = getelementptr inbounds i8, ptr %this, i64 40
  %0 = load ptr, ptr %_is, align 8
  %vtable = load ptr, ptr %0, align 8
  %vbase.offset.ptr = getelementptr i8, ptr %vtable, i64 -24
  %vbase.offset = load i64, ptr %vbase.offset.ptr, align 8
  %add.ptr = getelementptr inbounds i8, ptr %0, i64 %vbase.offset
  %call = tail call noundef zeroext i1 @_ZNKSt9basic_iosIcSt11char_traitsIcEEntEv(ptr noundef nonnull align 8 dereferenceable(264) %add.ptr)
  br i1 %call, label %if.then, label %if.end

if.then:                                          ; preds = %entry
  %exception = tail call ptr @__cxa_allocate_exception(i64 72) #11
  invoke void @_ZN7Iex_3_28InputExcC1EPKc(ptr noundef nonnull align 8 dereferenceable(72) %exception, ptr noundef nonnull @.str)
          to label %invoke.cont unwind label %lpad

invoke.cont:                                      ; preds = %if.then
  tail call void @__cxa_throw(ptr nonnull %exception, ptr nonnull @_ZTIN7Iex_3_28InputExcE, ptr nonnull @_ZN7Iex_3_28InputExcD1Ev) #12
  unreachable

lpad:                                             ; preds = %if.then
  %1 = landingpad { ptr, i32 }
          cleanup
  tail call void @__cxa_free_exception(ptr %exception) #11
  resume { ptr, i32 } %1

if.end:                                           ; preds = %entry
  %call.i = tail call ptr @__errno_location() #13
  store i32 0, ptr %call.i, align 4
  %2 = load ptr, ptr %_is, align 8
  %conv = sext i32 %n to i64
  %call3 = tail call noundef nonnull align 8 dereferenceable(16) ptr @_ZNSi4readEPcl(ptr noundef nonnull align 8 dereferenceable(16) %2, ptr noundef %c, i64 noundef %conv)
  %3 = load ptr, ptr %_is, align 8
  %call6 = tail call fastcc noundef zeroext i1 @_ZN7Imf_3_212_GLOBAL__N_110checkErrorERSil(ptr noundef nonnull align 8 dereferenceable(16) %3, i64 noundef %conv)
  ret i1 %call6
}